; Function Attrs: mustprogress uwtable
define dso_local void @_ZN17ParallelForLoop1D7RunStepEPSt11unique_lockISt5mutexE(ptr noundef nonnull align 8 dereferenceable(84) %this, ptr nocapture noundef %lock) unnamed_addr #9 align 2 {
entry:
  %__args.addr.i = alloca i64, align 8
  %__args.addr2.i = alloca i64, align 8
  %nextIndex = getelementptr inbounds i8, ptr %this, i64 64
  %0 = load i64, ptr %nextIndex, align 8
  %chunkSize = getelementptr inbounds i8, ptr %this, i64 80
  %1 = load i32, ptr %chunkSize, align 8
  %conv = sext i32 %1 to i64
  %add = add nsw i64 %0, %conv
  %maxIndex = getelementptr inbounds i8, ptr %this, i64 72
  %2 = load i64, ptr %maxIndex, align 8
  %.sroa.speculated = tail call i64 @llvm.smin.i64(i64 %2, i64 %add)
  store i64 %.sroa.speculated, ptr %nextIndex, align 8
  %vtable = load ptr, ptr %this, align 8
  %vfn = getelementptr inbounds i8, ptr %vtable, i64 24
  %3 = load ptr, ptr %vfn, align 8
  %call3 = tail call noundef zeroext i1 %3(ptr noundef nonnull align 8 dereferenceable(84) %this)
  br i1 %call3, label %if.end, label %if.then

if.then:                                          ; preds = %entry
  %4 = load ptr, ptr @_ZL10threadPool, align 8
  %prev.i = getelementptr inbounds i8, ptr %this, i64 8
  %5 = load ptr, ptr %prev.i, align 8
  %cmp.not.i = icmp eq ptr %5, null
  %next4.i = getelementptr inbounds i8, ptr %this, i64 16
  %6 = load ptr, ptr %next4.i, align 8
  %next3.i = getelementptr inbounds i8, ptr %5, i64 16
  %this.sink.i = select i1 %cmp.not.i, ptr %4, ptr %next3.i
  store ptr %6, ptr %this.sink.i, align 8
  %cmp6.not.i = icmp eq ptr %6, null
  br i1 %cmp6.not.i, label %_ZN10ThreadPool17RemoveFromJobListEP11ParallelJob.exit, label %if.then7.i

if.then7.i:                                       ; preds = %if.then
  %7 = load ptr, ptr %prev.i, align 8
  %prev10.i = getelementptr inbounds i8, ptr %6, i64 8
  store ptr %7, ptr %prev10.i, align 8
  br label %_ZN10ThreadPool17RemoveFromJobListEP11ParallelJob.exit

_ZN10ThreadPool17RemoveFromJobListEP11ParallelJob.exit: ; preds = %if.then, %if.then7.i
  %removed.i = getelementptr inbounds i8, ptr %this, i64 28
  store i8 1, ptr %removed.i, align 4
  br label %if.end

if.end:                                           ; preds = %_ZN10ThreadPool17RemoveFromJobListEP11ParallelJob.exit, %entry
  %_M_owns.i = getelementptr inbounds i8, ptr %lock, i64 8
  %8 = load i8, ptr %_M_owns.i, align 8
  %9 = and i8 %8, 1
  %tobool.not.i = icmp eq i8 %9, 0
  br i1 %tobool.not.i, label %if.then.i, label %if.else.i

if.then.i:                                        ; preds = %if.end
  tail call void @_ZSt20__throw_system_errori(i32 noundef 1) #32
  unreachable

if.else.i:                                        ; preds = %if.end
  %10 = load ptr, ptr %lock, align 8
  %tobool2.not.i = icmp eq ptr %10, null
  br i1 %tobool2.not.i, label %_ZNSt11unique_lockISt5mutexE6unlockEv.exit, label %if.then3.i

if.then3.i:                                       ; preds = %if.else.i
  %call1.i.i.i = tail call noundef i32 @pthread_mutex_unlock(ptr noundef nonnull %10) #31
  store i8 0, ptr %_M_owns.i, align 8
  br label %_ZNSt11unique_lockISt5mutexE6unlockEv.exit

_ZNSt11unique_lockISt5mutexE6unlockEv.exit:       ; preds = %if.else.i, %if.then3.i
  call void @llvm.lifetime.start.p0(i64 8, ptr nonnull %__args.addr.i)
  call void @llvm.lifetime.start.p0(i64 8, ptr nonnull %__args.addr2.i)
  store i64 %0, ptr %__args.addr.i, align 8
  store i64 %.sroa.speculated, ptr %__args.addr2.i, align 8
  %_M_manager.i.i = getelementptr inbounds i8, ptr %this, i64 48
  %11 = load ptr, ptr %_M_manager.i.i, align 8
  %tobool.not.i.i = icmp eq ptr %11, null
  br i1 %tobool.not.i.i, label %if.then.i3, label %_ZNKSt8functionIFvllEEclEll.exit

if.then.i3:                                       ; preds = %_ZNSt11unique_lockISt5mutexE6unlockEv.exit
  tail call void @_ZSt25__throw_bad_function_callv() #32
  unreachable

_ZNKSt8functionIFvllEEclEll.exit:                 ; preds = %_ZNSt11unique_lockISt5mutexE6unlockEv.exit
  %func = getelementptr inbounds i8, ptr %this, i64 32
  %_M_invoker.i = getelementptr inbounds i8, ptr %this, i64 56
  %12 = load ptr, ptr %_M_invoker.i, align 8
  call void %12(ptr noundef nonnull align 8 dereferenceable(16) %func, ptr noundef nonnull align 8 dereferenceable(8) %__args.addr.i, ptr noundef nonnull align 8 dereferenceable(8) %__args.addr2.i)
  call void @llvm.lifetime.end.p0(i64 8, ptr nonnull %__args.addr.i)
  call void @llvm.lifetime.end.p0(i64 8, ptr nonnull %__args.addr2.i)
  ret void
}